target datalayout = "e-m:e-p270:32:32-p271:32:32-p272:64:64-i64:64-i128:128-f80:128-n8:16:32:64-S128"
target triple = "x86_64-pc-linux-gnu"

%struct.ASN1_ITEM_st = type { i8, i64, ptr, i64, ptr, i64, ptr }
%struct.ASN1_PRIMITIVE_FUNCS_st = type { ptr, i64, ptr, ptr, ptr, ptr, ptr, ptr }
%struct.asn1_type_st = type { i32, %union.anon }
%union.anon = type { ptr }
%struct.asn1_string_st = type { i32, i32, ptr, i64 }

; Function Attrs: nounwind uwtable
define hidden i32 @ASN1_primitive_new(ptr noundef %0, ptr noundef %1) #0 {
  %3 = alloca i32, align 4
  %4 = alloca ptr, align 8
  %5 = alloca ptr, align 8
  %6 = alloca ptr, align 8
  %7 = alloca ptr, align 8
  %8 = alloca i32, align 4
  %9 = alloca i32, align 4
  %10 = alloca ptr, align 8
  store ptr %0, ptr %4, align 8, !tbaa !13
  store ptr %1, ptr %5, align 8, !tbaa !6
  call void @llvm.lifetime.start.p0(i64 8, ptr %6) #5
  call void @llvm.lifetime.start.p0(i64 8, ptr %7) #5
  call void @llvm.lifetime.start.p0(i64 4, ptr %8) #5
  %11 = load ptr, ptr %5, align 8, !tbaa !6
  %12 = icmp ne ptr %11, null
  br i1 %12, label %14, label %13

13:                                               ; preds = %2
  store i32 0, ptr %3, align 4
  store i32 1, ptr %9, align 4
  br label %100

14:                                               ; preds = %2
  %15 = load ptr, ptr %5, align 8, !tbaa !6
  %16 = getelementptr inbounds nuw %struct.ASN1_ITEM_st, ptr %15, i32 0, i32 4
  %17 = load ptr, ptr %16, align 8, !tbaa !19
  %18 = icmp ne ptr %17, null
  br i1 %18, label %19, label %38

19:                                               ; preds = %14
  call void @llvm.lifetime.start.p0(i64 8, ptr %10) #5
  %20 = load ptr, ptr %5, align 8, !tbaa !6
  %21 = getelementptr inbounds nuw %struct.ASN1_ITEM_st, ptr %20, i32 0, i32 4
  %22 = load ptr, ptr %21, align 8, !tbaa !19
  store ptr %22, ptr %10, align 8, !tbaa !47
  %23 = load ptr, ptr %10, align 8, !tbaa !47
  %24 = getelementptr inbounds nuw %struct.ASN1_PRIMITIVE_FUNCS_st, ptr %23, i32 0, i32 2
  %25 = load ptr, ptr %24, align 8, !tbaa !49
  %26 = icmp ne ptr %25, null
  br i1 %26, label %27, label %34

27:                                               ; preds = %19
  %28 = load ptr, ptr %10, align 8, !tbaa !47
  %29 = getelementptr inbounds nuw %struct.ASN1_PRIMITIVE_FUNCS_st, ptr %28, i32 0, i32 2
  %30 = load ptr, ptr %29, align 8, !tbaa !49
  %31 = load ptr, ptr %4, align 8, !tbaa !13
  %32 = load ptr, ptr %5, align 8, !tbaa !6
  %33 = call i32 %30(ptr noundef %31, ptr noundef %32)
  store i32 %33, ptr %3, align 4
  store i32 1, ptr %9, align 4
  br label %35

34:                                               ; preds = %19
  store i32 0, ptr %9, align 4
  br label %35

35:                                               ; preds = %34, %27
  call void @llvm.lifetime.end.p0(i64 8, ptr %10) #5
  %36 = load i32, ptr %9, align 4
  switch i32 %36, label %100 [
    i32 0, label %37
  ]

37:                                               ; preds = %35
  br label %38

38:                                               ; preds = %37, %14
  %39 = load ptr, ptr %5, align 8, !tbaa !6
  %40 = getelementptr inbounds nuw %struct.ASN1_ITEM_st, ptr %39, i32 0, i32 0
  %41 = load i8, ptr %40, align 8, !tbaa !28
  %42 = sext i8 %41 to i32
  %43 = icmp eq i32 %42, 5
  br i1 %43, label %44, label %45

44:                                               ; preds = %38
  store i32 -1, ptr %8, align 4, !tbaa !15
  br label %50

45:                                               ; preds = %38
  %46 = load ptr, ptr %5, align 8, !tbaa !6
  %47 = getelementptr inbounds nuw %struct.ASN1_ITEM_st, ptr %46, i32 0, i32 1
  %48 = load i64, ptr %47, align 8, !tbaa !51
  %49 = trunc i64 %48 to i32
  store i32 %49, ptr %8, align 4, !tbaa !15
  br label %50

50:                                               ; preds = %45, %44
  %51 = load i32, ptr %8, align 4, !tbaa !15
  switch i32 %51, label %75 [
    i32 6, label %52
    i32 1, label %55
    i32 5, label %61
    i32 -4, label %63
  ]

52:                                               ; preds = %50
  %53 = call ptr @OBJ_nid2obj(i32 noundef 0)
  %54 = load ptr, ptr %4, align 8, !tbaa !13
  store ptr %53, ptr %54, align 8, !tbaa !11
  store i32 1, ptr %3, align 4
  store i32 1, ptr %9, align 4
  br label %100

55:                                               ; preds = %50
  %56 = load ptr, ptr %5, align 8, !tbaa !6
  %57 = getelementptr inbounds nuw %struct.ASN1_ITEM_st, ptr %56, i32 0, i32 5
  %58 = load i64, ptr %57, align 8, !tbaa !38
  %59 = trunc i64 %58 to i32
  %60 = load ptr, ptr %4, align 8, !tbaa !13
  store i32 %59, ptr %60, align 4, !tbaa !15
  store i32 1, ptr %3, align 4
  store i32 1, ptr %9, align 4
  br label %100

61:                                               ; preds = %50
  %62 = load ptr, ptr %4, align 8, !tbaa !13
  store ptr inttoptr (i64 1 to ptr), ptr %62, align 8, !tbaa !11
  store i32 1, ptr %3, align 4
  store i32 1, ptr %9, align 4
  br label %100

63:                                               ; preds = %50
  %64 = call noalias ptr @malloc(i64 noundef 16) #6
  store ptr %64, ptr %6, align 8, !tbaa !52
  %65 = load ptr, ptr %6, align 8, !tbaa !52
  %66 = icmp ne ptr %65, null
  br i1 %66, label %68, label %67

67:                                               ; preds = %63
  store i32 0, ptr %3, align 4
  store i32 1, ptr %9, align 4
  br label %100

68:                                               ; preds = %63
  %69 = load ptr, ptr %6, align 8, !tbaa !52
  %70 = getelementptr inbounds nuw %struct.asn1_type_st, ptr %69, i32 0, i32 1
  store ptr null, ptr %70, align 8, !tbaa !54
  %71 = load ptr, ptr %6, align 8, !tbaa !52
  %72 = getelementptr inbounds nuw %struct.asn1_type_st, ptr %71, i32 0, i32 0
  store i32 -1, ptr %72, align 8, !tbaa !55
  %73 = load ptr, ptr %6, align 8, !tbaa !52
  %74 = load ptr, ptr %4, align 8, !tbaa !13
  store ptr %73, ptr %74, align 8, !tbaa !11
  br label %94

75:                                               ; preds = %50
  %76 = load i32, ptr %8, align 4, !tbaa !15
  %77 = call ptr @ASN1_STRING_type_new(i32 noundef %76)
  store ptr %77, ptr %7, align 8, !tbaa !57
  %78 = load ptr, ptr %5, align 8, !tbaa !6
  %79 = getelementptr inbounds nuw %struct.ASN1_ITEM_st, ptr %78, i32 0, i32 0
  %80 = load i8, ptr %79, align 8, !tbaa !28
  %81 = sext i8 %80 to i32
  %82 = icmp eq i32 %81, 5
  br i1 %82, label %83, label %91

83:                                               ; preds = %75
  %84 = load ptr, ptr %7, align 8, !tbaa !57
  %85 = icmp ne ptr %84, null
  br i1 %85, label %86, label %91

86:                                               ; preds = %83
  %87 = load ptr, ptr %7, align 8, !tbaa !57
  %88 = getelementptr inbounds nuw %struct.asn1_string_st, ptr %87, i32 0, i32 3
  %89 = load i64, ptr %88, align 8, !tbaa !59
  %90 = or i64 %89, 64
  store i64 %90, ptr %88, align 8, !tbaa !59
  br label %91

91:                                               ; preds = %86, %83, %75
  %92 = load ptr, ptr %7, align 8, !tbaa !57
  %93 = load ptr, ptr %4, align 8, !tbaa !13
  store ptr %92, ptr %93, align 8, !tbaa !11
  br label %94

94:                                               ; preds = %91, %68
  %95 = load ptr, ptr %4, align 8, !tbaa !13
  %96 = load ptr, ptr %95, align 8, !tbaa !11
  %97 = icmp ne ptr %96, null
  br i1 %97, label %98, label %99

98:                                               ; preds = %94
  store i32 1, ptr %3, align 4
  store i32 1, ptr %9, align 4
  br label %100

99:                                               ; preds = %94
  store i32 0, ptr %3, align 4
  store i32 1, ptr %9, align 4
  br label %100

100:                                              ; preds = %99, %98, %67, %61, %55, %52, %35, %13
  call void @llvm.lifetime.end.p0(i64 4, ptr %8) #5
  call void @llvm.lifetime.end.p0(i64 8, ptr %7) #5
  call void @llvm.lifetime.end.p0(i64 8, ptr %6) #5
  %101 = load i32, ptr %3, align 4
  ret i32 %101
}