; Function Attrs: nounwind uwtable
define hidden i32 @ASN1_primitive_new(ptr noundef %0, ptr noundef %1) local_unnamed_addr #0 {
  %.not = icmp eq ptr %1, null
  br i1 %.not, label %37, label %3

3:                                                ; preds = %2
  %4 = getelementptr inbounds nuw i8, ptr %1, i64 32
  %5 = load ptr, ptr %4, align 8, !tbaa !11
  %.not35 = icmp eq ptr %5, null
  br i1 %.not35, label %.thread, label %6

6:                                                ; preds = %3
  %7 = getelementptr inbounds nuw i8, ptr %5, i64 16
  %8 = load ptr, ptr %7, align 8, !tbaa !38
  %.not36 = icmp eq ptr %8, null
  br i1 %.not36, label %.thread, label %9

9:                                                ; preds = %6
  %10 = tail call i32 %8(ptr noundef %0, ptr noundef nonnull %1) #5
  br label %37

.thread:                                          ; preds = %6, %3
  %11 = load i8, ptr %1, align 8, !tbaa !19
  %12 = icmp eq i8 %11, 5
  br i1 %12, label %.thread40, label %13

13:                                               ; preds = %.thread
  %14 = getelementptr inbounds nuw i8, ptr %1, i64 8
  %15 = load i64, ptr %14, align 8, !tbaa !36
  %16 = trunc i64 %15 to i32
  switch i32 %16, label %.thread40 [
    i32 6, label %17
    i32 1, label %19
    i32 5, label %23
    i32 -4, label %24
  ]

17:                                               ; preds = %13
  %18 = tail call ptr @OBJ_nid2obj(i32 noundef 0) #5
  store ptr %18, ptr %0, align 8, !tbaa !6
  br label %37

19:                                               ; preds = %13
  %20 = getelementptr inbounds nuw i8, ptr %1, i64 40
  %21 = load i64, ptr %20, align 8, !tbaa !29
  %22 = trunc i64 %21 to i32
  store i32 %22, ptr %0, align 4, !tbaa !37
  br label %37

23:                                               ; preds = %13
  store ptr inttoptr (i64 1 to ptr), ptr %0, align 8, !tbaa !6
  br label %37

24:                                               ; preds = %13
  %25 = tail call noalias dereferenceable_or_null(16) ptr @malloc(i64 noundef 16) #6
  %.not37 = icmp eq ptr %25, null
  br i1 %.not37, label %37, label %26

26:                                               ; preds = %24
  %27 = getelementptr inbounds nuw i8, ptr %25, i64 8
  store ptr null, ptr %27, align 8, !tbaa !39
  store i32 -1, ptr %25, align 8, !tbaa !40
  br label %36

.thread40:                                        ; preds = %.thread, %13
  %.02942 = phi i32 [ %16, %13 ], [ -1, %.thread ]
  %28 = tail call ptr @ASN1_STRING_type_new(i32 noundef %.02942) #5
  %29 = load i8, ptr %1, align 8, !tbaa !19
  %30 = icmp eq i8 %29, 5
  %31 = icmp ne ptr %28, null
  %or.cond = select i1 %30, i1 %31, i1 false
  br i1 %or.cond, label %32, label %36

32:                                               ; preds = %.thread40
  %33 = getelementptr inbounds nuw i8, ptr %28, i64 16
  %34 = load i64, ptr %33, align 8, !tbaa !42
  %35 = or i64 %34, 64
  store i64 %35, ptr %33, align 8, !tbaa !42
  br label %36

36:                                               ; preds = %.thread40, %32, %26
  %storemerge = phi ptr [ %25, %26 ], [ %28, %32 ], [ %28, %.thread40 ]
  store ptr %storemerge, ptr %0, align 8, !tbaa !6
  %.not38 = icmp ne ptr %storemerge, null
  %. = zext i1 %.not38 to i32
  br label %37

37:                                               ; preds = %9, %36, %24, %2, %23, %19, %17
  %.0 = phi i32 [ 1, %23 ], [ 1, %19 ], [ 1, %17 ], [ %10, %9 ], [ 0, %2 ], [ 0, %24 ], [ %., %36 ]
  ret i32 %.0
}